; Function Attrs: mustprogress uwtable
define internal fastcc noundef zeroext i1 @_ZN32pxrInternal_v0_24__pxrReserved__L8_IsCloseINS_7GfVec3hEEEbRKNS_7VtArrayIT_EES6_(ptr noundef nonnull align 8 dereferenceable(40) %0, ptr noundef nonnull align 8 dereferenceable(40) %1) unnamed_addr #0 {
  %3 = tail call noundef i64 @_ZNK32pxrInternal_v0_24__pxrReserved__7VtArrayINS_7GfVec3hEE4sizeEv(ptr noundef nonnull align 8 dereferenceable(40) %0)
  %4 = tail call noundef i64 @_ZNK32pxrInternal_v0_24__pxrReserved__7VtArrayINS_7GfVec3hEE4sizeEv(ptr noundef nonnull align 8 dereferenceable(40) %1)
  %.not = icmp eq i64 %3, %4
  br i1 %.not, label %.preheader, label %.loopexit

.preheader:                                       ; preds = %2
  %5 = tail call noundef i64 @_ZNK32pxrInternal_v0_24__pxrReserved__7VtArrayINS_7GfVec3hEE4sizeEv(ptr noundef nonnull align 8 dereferenceable(40) %0)
  %.not12 = icmp eq i64 %5, 0
  br i1 %.not12, label %.loopexit, label %.lr.ph

6:                                                ; preds = %_ZN32pxrInternal_v0_24__pxrReserved__L8_IsCloseINS_7GfVec3hETnPNSt9enable_ifIXsr9GfIsGfVecIT_EE5valueEvE4typeELPv0EEEbRKS3_S9_.exit
  %7 = add nuw i64 %.010, 1
  %8 = tail call noundef i64 @_ZNK32pxrInternal_v0_24__pxrReserved__7VtArrayINS_7GfVec3hEE4sizeEv(ptr noundef nonnull align 8 dereferenceable(40) %0)
  %9 = icmp ult i64 %7, %8
  br i1 %9, label %.lr.ph, label %.loopexit, !llvm.loop !35

.lr.ph:                                           ; preds = %.preheader, %6
  %.010 = phi i64 [ %7, %6 ], [ 0, %.preheader ]
  %10 = tail call noundef nonnull align 2 dereferenceable(6) ptr @_ZNK32pxrInternal_v0_24__pxrReserved__7VtArrayINS_7GfVec3hEEixEm(ptr noundef nonnull align 8 dereferenceable(40) %0, i64 noundef %.010)
  %11 = tail call noundef nonnull align 2 dereferenceable(6) ptr @_ZNK32pxrInternal_v0_24__pxrReserved__7VtArrayINS_7GfVec3hEEixEm(ptr noundef nonnull align 8 dereferenceable(40) %1, i64 noundef %.010)
  br label %12

12:                                               ; preds = %12, %.lr.ph
  %.08.i = phi i64 [ 0, %.lr.ph ], [ %26, %12 ]
  %13 = getelementptr inbounds nuw [3 x %"class.pxrInternal_v0_24__pxrReserved__::pxr_half::half"], ptr %10, i64 0, i64 %.08.i
  %14 = getelementptr inbounds nuw [3 x %"class.pxrInternal_v0_24__pxrReserved__::pxr_half::half"], ptr %11, i64 0, i64 %.08.i
  %.val.i = load i16, ptr %13, align 2
  %.val7.i = load i16, ptr %14, align 2
  %15 = zext i16 %.val.i to i64
  %16 = getelementptr inbounds nuw [65536 x %"union.pxrInternal_v0_24__pxrReserved__::pxr_half::half::uif"], ptr @_ZN32pxrInternal_v0_24__pxrReserved__8pxr_half4half8_toFloatE, i64 0, i64 %15
  %17 = load float, ptr %16, align 4
  %18 = fpext float %17 to double
  %19 = zext i16 %.val7.i to i64
  %20 = getelementptr inbounds nuw [65536 x %"union.pxrInternal_v0_24__pxrReserved__::pxr_half::half::uif"], ptr @_ZN32pxrInternal_v0_24__pxrReserved__8pxr_half4half8_toFloatE, i64 0, i64 %19
  %21 = load float, ptr %20, align 4
  %22 = fpext float %21 to double
  %23 = fsub double %18, %22
  %24 = tail call double @llvm.fabs.f64(double %23)
  %25 = fcmp olt double %24, 1.000000e-02
  %26 = add nuw nsw i64 %.08.i, 1
  %exitcond.i = icmp ne i64 %26, 3
  %or.cond.not.i = select i1 %25, i1 %exitcond.i, i1 false
  br i1 %or.cond.not.i, label %12, label %_ZN32pxrInternal_v0_24__pxrReserved__L8_IsCloseINS_7GfVec3hETnPNSt9enable_ifIXsr9GfIsGfVecIT_EE5valueEvE4typeELPv0EEEbRKS3_S9_.exit, !llvm.loop !18

_ZN32pxrInternal_v0_24__pxrReserved__L8_IsCloseINS_7GfVec3hETnPNSt9enable_ifIXsr9GfIsGfVecIT_EE5valueEvE4typeELPv0EEEbRKS3_S9_.exit: ; preds = %12
  br i1 %25, label %6, label %.loopexit

.loopexit:                                        ; preds = %_ZN32pxrInternal_v0_24__pxrReserved__L8_IsCloseINS_7GfVec3hETnPNSt9enable_ifIXsr9GfIsGfVecIT_EE5valueEvE4typeELPv0EEEbRKS3_S9_.exit, %6, %.preheader, %2
  %.09 = phi i1 [ false, %2 ], [ true, %.preheader ], [ %25, %6 ], [ %25, %_ZN32pxrInternal_v0_24__pxrReserved__L8_IsCloseINS_7GfVec3hETnPNSt9enable_ifIXsr9GfIsGfVecIT_EE5valueEvE4typeELPv0EEEbRKS3_S9_.exit ]
  ret i1 %.09
}